target datalayout = "e-m:e-p270:32:32-p271:32:32-p272:64:64-i64:64-i128:128-f80:128-n8:16:32:64-S128"
target triple = "x86_64-unknown-linux-gnu"

%"class.boost::detail::shared_count" = type { ptr }
%"class.QuantLib::GBSMRNDCalculator" = type { %"class.QuantLib::RiskNeutralDensityCalculator", %"class.boost::shared_ptr.23" }
%"class.QuantLib::RiskNeutralDensityCalculator" = type { ptr }
%"class.boost::shared_ptr.23" = type { ptr, %"class.boost::detail::shared_count" }

; Function Attrs: mustprogress nounwind uwtable
define linkonce_odr void @_ZN5boost6detail12shared_countC2EOS1_(ptr noundef nonnull align 8 dereferenceable(8) %this, ptr noundef nonnull align 8 dereferenceable(8) %r) unnamed_addr #5 comdat align 2 {
entry:
  %this.addr = alloca ptr, align 8
  %r.addr = alloca ptr, align 8
  store ptr %this, ptr %this.addr, align 8, !tbaa !3
  store ptr %r, ptr %r.addr, align 8, !tbaa !3
  %this1 = load ptr, ptr %this.addr, align 8
  %pi_ = getelementptr inbounds nuw %"class.boost::detail::shared_count", ptr %this1, i32 0, i32 0
  %0 = load ptr, ptr %r.addr, align 8, !tbaa !3
  %pi_2 = getelementptr inbounds nuw %"class.boost::detail::shared_count", ptr %0, i32 0, i32 0
  %1 = load ptr, ptr %pi_2, align 8, !tbaa !44
  store ptr %1, ptr %pi_, align 8, !tbaa !44
  %2 = load ptr, ptr %r.addr, align 8, !tbaa !3
  %pi_3 = getelementptr inbounds nuw %"class.boost::detail::shared_count", ptr %2, i32 0, i32 0
  store ptr null, ptr %pi_3, align 8, !tbaa !44
  ret void
}

; Function Attrs: mustprogress nounwind uwtable
define linkonce_odr void @_ZN5boost10shared_ptrIN8QuantLib30GeneralizedBlackScholesProcessEEC2EOS3_(ptr noundef nonnull align 8 dereferenceable(16) %this, ptr noundef nonnull align 8 dereferenceable(16) %r) unnamed_addr #5 comdat align 2 {
entry:
  %this.addr = alloca ptr, align 8
  %r.addr = alloca ptr, align 8
  store ptr %this, ptr %this.addr, align 8, !tbaa !3
  store ptr %r, ptr %r.addr, align 8, !tbaa !3
  %this1 = load ptr, ptr %this.addr, align 8
  %px = getelementptr inbounds nuw %"class.boost::shared_ptr.23", ptr %this1, i32 0, i32 0
  %0 = load ptr, ptr %r.addr, align 8, !tbaa !3
  %px2 = getelementptr inbounds nuw %"class.boost::shared_ptr.23", ptr %0, i32 0, i32 0
  %1 = load ptr, ptr %px2, align 8, !tbaa !9
  store ptr %1, ptr %px, align 8, !tbaa !9
  %pn = getelementptr inbounds nuw %"class.boost::shared_ptr.23", ptr %this1, i32 0, i32 1
  %2 = load ptr, ptr %r.addr, align 8, !tbaa !3
  %pn3 = getelementptr inbounds nuw %"class.boost::shared_ptr.23", ptr %2, i32 0, i32 1
  call void @_ZN5boost6detail12shared_countC2EOS1_(ptr noundef nonnull align 8 dereferenceable(8) %pn, ptr noundef nonnull align 8 dereferenceable(8) %pn3) #17
  %3 = load ptr, ptr %r.addr, align 8, !tbaa !3
  %px4 = getelementptr inbounds nuw %"class.boost::shared_ptr.23", ptr %3, i32 0, i32 0
  store ptr null, ptr %px4, align 8, !tbaa !9
  ret void
}

; Function Attrs: inlinehint mustprogress nounwind uwtable
define linkonce_odr void @_ZN8QuantLib28RiskNeutralDensityCalculatorC2Ev(ptr noundef nonnull align 8 dereferenceable(8) %this) unnamed_addr #7 comdat align 2 {
entry:
  %this.addr = alloca ptr, align 8
  store ptr %this, ptr %this.addr, align 8, !tbaa !3
  %this1 = load ptr, ptr %this.addr, align 8
  store ptr getelementptr inbounds inrange(-16, 40) ({ [7 x ptr] }, ptr @_ZTVN8QuantLib28RiskNeutralDensityCalculatorE, i32 0, i32 0, i32 2), ptr %this1, align 8, !tbaa !7
  ret void
}

; Function Attrs: mustprogress nounwind uwtable
define void @_ZN8QuantLib17GBSMRNDCalculatorC2EN5boost10shared_ptrINS_30GeneralizedBlackScholesProcessEEE(ptr noundef nonnull align 8 dereferenceable(24) %this, ptr noundef %process) unnamed_addr #5 align 2 {
entry:
  %this.addr = alloca ptr, align 8
  %process.indirect_addr = alloca ptr, align 8
  store ptr %this, ptr %this.addr, align 8, !tbaa !3
  store ptr %process, ptr %process.indirect_addr, align 8, !tbaa !3
  %this1 = load ptr, ptr %this.addr, align 8
  call void @_ZN8QuantLib28RiskNeutralDensityCalculatorC2Ev(ptr noundef nonnull align 8 dereferenceable(8) %this1) #17
  store ptr getelementptr inbounds inrange(-16, 40) ({ [7 x ptr] }, ptr @_ZTVN8QuantLib17GBSMRNDCalculatorE, i32 0, i32 0, i32 2), ptr %this1, align 8, !tbaa !7
  %process_ = getelementptr inbounds nuw %"class.QuantLib::GBSMRNDCalculator", ptr %this1, i32 0, i32 1
  call void @_ZN5boost10shared_ptrIN8QuantLib30GeneralizedBlackScholesProcessEEC2EOS3_(ptr noundef nonnull align 8 dereferenceable(16) %process_, ptr noundef nonnull align 8 dereferenceable(16) %process) #17
  ret void
}